; Function Attrs: null_pointer_is_valid sspstrong uwtable
define internal i32 @dissect_nbap_HSDSCH_MACdFlow_ID(ptr noundef %0, i32 noundef %1, ptr noundef %2, ptr noundef %3, i32 noundef %4) #0 {
  %6 = alloca i32, align 4
  call void @llvm.lifetime.start.p0(i64 4, ptr nonnull %6) #9
  %7 = getelementptr inbounds nuw i8, ptr %2, i64 16
  %8 = load ptr, ptr %7, align 8
  %9 = getelementptr inbounds nuw i8, ptr %8, i64 408
  %10 = load ptr, ptr %9, align 8
  %11 = load i32, ptr @proto_nbap, align 4
  %12 = tail call ptr @p_get_proto_data(ptr noundef %10, ptr noundef %8, i32 noundef %11, i32 noundef 0)
  %13 = icmp eq ptr %12, null
  br i1 %13, label %14, label %nbap_get_private_data.exit

14:                                               ; preds = %5
  %15 = load ptr, ptr %9, align 8
  %16 = tail call noalias dereferenceable_or_null(268056) ptr @wmem_alloc0(ptr noundef %15, i64 noundef 268056) #10
  %17 = load ptr, ptr %9, align 8
  %18 = load i32, ptr @proto_nbap, align 4
  tail call void @p_add_proto_data(ptr noundef %17, ptr noundef %8, i32 noundef %18, i32 noundef 0, ptr noundef %16)
  %19 = getelementptr inbounds nuw i8, ptr %16, i64 68
  store i32 3, ptr %19, align 4
  %20 = getelementptr inbounds nuw i8, ptr %16, i64 108
  store i8 0, ptr %20, align 4
  %21 = getelementptr inbounds nuw i8, ptr %16, i64 12
  store i32 65535, ptr %21, align 4
  %22 = getelementptr inbounds nuw i8, ptr %16, i64 40
  store i32 65535, ptr %22, align 8
  %23 = getelementptr inbounds nuw i8, ptr %16, i64 109
  store i8 2, ptr %23, align 1
  %24 = getelementptr i8, ptr %16, i64 267508
  br label %25

25:                                               ; preds = %25, %14
  %indvars.iv.i = phi i64 [ 0, %14 ], [ %indvars.iv.next.i, %25 ]
  %.idx.i = mul nuw nsw i64 %indvars.iv.i, 40
  %26 = getelementptr i8, ptr %24, i64 %.idx.i
  store i8 1, ptr %26, align 4
  %indvars.iv.next.i = add nuw nsw i64 %indvars.iv.i, 1
  %exitcond.not.i = icmp eq i64 %indvars.iv.next.i, 8
  br i1 %exitcond.not.i, label %nbap_get_private_data.exit, label %25, !llvm.loop !9

nbap_get_private_data.exit:                       ; preds = %25, %5
  %.0.i = phi ptr [ %12, %5 ], [ %16, %25 ]
  %27 = call i32 @dissect_per_constrained_integer(ptr noundef %0, i32 noundef %1, ptr noundef %2, ptr noundef %3, i32 noundef %4, i32 noundef 0, i32 noundef 7, ptr noundef nonnull %6, i1 noundef zeroext false)
  %28 = load i32, ptr %6, align 4
  %29 = getelementptr inbounds nuw i8, ptr %.0.i, i64 68
  store i32 %28, ptr %29, align 4
  %30 = getelementptr inbounds nuw i8, ptr %.0.i, i64 16
  %31 = load i32, ptr %30, align 8
  %32 = icmp ult i32 %31, 9
  br i1 %32, label %34, label %33

33:                                               ; preds = %nbap_get_private_data.exit
  call void (ptr, ...) @proto_report_dissector_bug(ptr noundef nonnull @.str.9328, ptr noundef nonnull @.str.9329, i32 noundef 23672, ptr noundef nonnull @.str.9330) #12
  unreachable

34:                                               ; preds = %nbap_get_private_data.exit
  %.not = icmp eq i32 %31, 0
  br i1 %.not, label %35, label %36

35:                                               ; preds = %34
  call void (ptr, ...) @proto_report_dissector_bug(ptr noundef nonnull @.str.9328, ptr noundef nonnull @.str.9329, i32 noundef 23673, ptr noundef nonnull @.str.9331) #12
  unreachable

36:                                               ; preds = %34
  %37 = getelementptr inbounds nuw i8, ptr %.0.i, i64 267440
  %38 = zext nneg i32 %31 to i64
  %39 = getelementptr i32, ptr %37, i64 %38
  %40 = getelementptr i8, ptr %39, i64 -4
  store i32 %28, ptr %40, align 4
  call void @llvm.lifetime.end.p0(i64 4, ptr nonnull %6) #9
  ret i32 %27
}